target datalayout = "e-m:e-p270:32:32-p271:32:32-p272:64:64-i64:64-i128:128-f80:128-n8:16:32:64-S128"
target triple = "x86_64-pc-linux-gnu"

; Function Attrs: alwaysinline nounwind uwtable
define internal i64 @avio_tell(ptr noundef %0) #4 {
  %2 = alloca ptr, align 8
  store ptr %0, ptr %2, align 8, !tbaa !38
  %3 = load ptr, ptr %2, align 8, !tbaa !38
  %4 = call i64 @avio_seek(ptr noundef %3, i64 noundef 0, i32 noundef 1)
  ret i64 %4
}

; Function Attrs: nounwind uwtable
define internal i64 @find_any_startcode(ptr noundef %0, i64 noundef %1) #0 {
  %3 = alloca i64, align 8
  %4 = alloca ptr, align 8
  %5 = alloca i64, align 8
  %6 = alloca i64, align 8
  %7 = alloca i32, align 4
  store ptr %0, ptr %4, align 8, !tbaa !38
  store i64 %1, ptr %5, align 8, !tbaa !45
  call void @llvm.lifetime.start.p0(i64 8, ptr %6) #12
  store i64 0, ptr %6, align 8, !tbaa !45
  %8 = load i64, ptr %5, align 8, !tbaa !45
  %9 = icmp sge i64 %8, 0
  br i1 %9, label %10, label %14

10:                                               ; preds = %2
  %11 = load ptr, ptr %4, align 8, !tbaa !38
  %12 = load i64, ptr %5, align 8, !tbaa !45
  %13 = call i64 @avio_seek(ptr noundef %11, i64 noundef %12, i32 noundef 0)
  br label %14

14:                                               ; preds = %10, %2
  br label %15

15:                                               ; preds = %35, %30, %14
  %16 = load ptr, ptr %4, align 8, !tbaa !38
  %17 = call i32 @avio_feof(ptr noundef %16)
  %18 = icmp ne i32 %17, 0
  %19 = xor i1 %18, true
  br i1 %19, label %20, label %36

20:                                               ; preds = %15
  %21 = load i64, ptr %6, align 8, !tbaa !45
  %22 = shl i64 %21, 8
  %23 = load ptr, ptr %4, align 8, !tbaa !38
  %24 = call i32 @avio_r8(ptr noundef %23)
  %25 = sext i32 %24 to i64
  %26 = or i64 %22, %25
  store i64 %26, ptr %6, align 8, !tbaa !45
  %27 = load i64, ptr %6, align 8, !tbaa !45
  %28 = lshr i64 %27, 56
  %29 = icmp ne i64 %28, 78
  br i1 %29, label %30, label %31

30:                                               ; preds = %20
  br label %15, !llvm.loop !146

31:                                               ; preds = %20
  %32 = load i64, ptr %6, align 8, !tbaa !45
  switch i64 %32, label %35 [
    i64 5642300418477196461, label %33
    i64 5643873726143592923, label %33
    i64 5641854393898386793, label %33
    i64 5641228474469759608, label %33
    i64 5645505568151168590, label %33
  ]

33:                                               ; preds = %31, %31, %31, %31, %31
  %34 = load i64, ptr %6, align 8, !tbaa !45
  store i64 %34, ptr %3, align 8
  store i32 1, ptr %7, align 4
  br label %37

35:                                               ; preds = %31
  br label %15, !llvm.loop !146

36:                                               ; preds = %15
  store i64 0, ptr %3, align 8
  store i32 1, ptr %7, align 4
  br label %37

37:                                               ; preds = %36, %33
  call void @llvm.lifetime.end.p0(i64 8, ptr %6) #12
  %38 = load i64, ptr %3, align 8
  ret i64 %38
}

; Function Attrs: nounwind uwtable
define internal i64 @find_startcode(ptr noundef %0, i64 noundef %1, i64 noundef %2) #0 {
  %4 = alloca i64, align 8
  %5 = alloca ptr, align 8
  %6 = alloca i64, align 8
  %7 = alloca i64, align 8
  %8 = alloca i64, align 8
  %9 = alloca i32, align 4
  store ptr %0, ptr %5, align 8, !tbaa !38
  store i64 %1, ptr %6, align 8, !tbaa !45
  store i64 %2, ptr %7, align 8, !tbaa !45
  br label %10

10:                                               ; preds = %29, %3
  call void @llvm.lifetime.start.p0(i64 8, ptr %8) #12
  %11 = load ptr, ptr %5, align 8, !tbaa !38
  %12 = load i64, ptr %7, align 8, !tbaa !45
  %13 = call i64 @find_any_startcode(ptr noundef %11, i64 noundef %12)
  store i64 %13, ptr %8, align 8, !tbaa !45
  %14 = load i64, ptr %8, align 8, !tbaa !45
  %15 = load i64, ptr %6, align 8, !tbaa !45
  %16 = icmp eq i64 %14, %15
  br i1 %16, label %17, label %21

17:                                               ; preds = %10
  %18 = load ptr, ptr %5, align 8, !tbaa !38
  %19 = call i64 @avio_tell(ptr noundef %18)
  %20 = sub nsw i64 %19, 8
  store i64 %20, ptr %4, align 8
  store i32 1, ptr %9, align 4
  br label %27

21:                                               ; preds = %10
  %22 = load i64, ptr %8, align 8, !tbaa !45
  %23 = icmp eq i64 %22, 0
  br i1 %23, label %24, label %25

24:                                               ; preds = %21
  store i64 -1, ptr %4, align 8
  store i32 1, ptr %9, align 4
  br label %27

25:                                               ; preds = %21
  br label %26

26:                                               ; preds = %25
  store i64 -1, ptr %7, align 8, !tbaa !45
  store i32 0, ptr %9, align 4
  br label %27

27:                                               ; preds = %26, %24, %17
  call void @llvm.lifetime.end.p0(i64 8, ptr %8) #12
  %28 = load i32, ptr %9, align 4
  switch i32 %28, label %32 [
    i32 0, label %29
    i32 1, label %30
  ]

29:                                               ; preds = %27
  br label %10

30:                                               ; preds = %27
  %31 = load i64, ptr %4, align 8
  ret i64 %31

32:                                               ; preds = %27
  unreachable
}