; Function Attrs: nounwind uwtable
define internal fastcc range(i64 -9223372036854775808, 9223372036854775800) i64 @find_startcode(ptr noundef %0, i64 noundef range(i64 5641854393898386793, 5643873726143592924) %1, i64 noundef %2) unnamed_addr #1 {
  br label %4

4:                                                ; preds = %find_any_startcode.exit, %3
  %.08 = phi i64 [ %2, %3 ], [ -1, %find_any_startcode.exit ]
  %5 = icmp sgt i64 %.08, -1
  br i1 %5, label %6, label %8

6:                                                ; preds = %4
  %7 = tail call i64 @avio_seek(ptr noundef %0, i64 noundef %.08, i32 noundef 0) #12
  br label %8

8:                                                ; preds = %6, %4
  %9 = tail call i32 @avio_feof(ptr noundef %0) #12
  %.not12.i = icmp eq i32 %9, 0
  br i1 %.not12.i, label %.lr.ph.i, label %.thread18

.lr.ph.i:                                         ; preds = %8, %.backedge.i
  %.013.i = phi i64 [ %13, %.backedge.i ], [ 0, %8 ]
  %10 = shl i64 %.013.i, 8
  %11 = tail call i32 @avio_r8(ptr noundef %0) #12
  %12 = sext i32 %11 to i64
  %13 = or i64 %10, %12
  %.mask.i = and i64 %13, -72057594037927936
  %.not11.i = icmp eq i64 %.mask.i, 5620492334958379008
  br i1 %.not11.i, label %15, label %.backedge.i

.backedge.i:                                      ; preds = %15, %.lr.ph.i
  %14 = tail call i32 @avio_feof(ptr noundef %0) #12
  %.not.i = icmp eq i32 %14, 0
  br i1 %.not.i, label %.lr.ph.i, label %.thread18, !llvm.loop !101

15:                                               ; preds = %.lr.ph.i
  switch i64 %13, label %.backedge.i [
    i64 5642300418477196461, label %find_any_startcode.exit
    i64 5643873726143592923, label %find_any_startcode.exit
    i64 5641854393898386793, label %find_any_startcode.exit
    i64 5641228474469759608, label %find_any_startcode.exit
    i64 5645505568151168590, label %find_any_startcode.exit
  ]

find_any_startcode.exit:                          ; preds = %15, %15, %15, %15, %15
  %16 = icmp eq i64 %13, %1
  br i1 %16, label %.thread, label %4

.thread:                                          ; preds = %find_any_startcode.exit
  %17 = tail call i64 @avio_seek(ptr noundef %0, i64 noundef 0, i32 noundef 1) #12
  %18 = add nsw i64 %17, -8
  br label %.thread18

.thread18:                                        ; preds = %8, %.backedge.i, %.thread
  %.117 = phi i64 [ %18, %.thread ], [ -1, %.backedge.i ], [ -1, %8 ]
  ret i64 %.117
}